target datalayout = "e-m:e-p270:32:32-p271:32:32-p272:64:64-i64:64-i128:128-f80:128-n8:16:32:64-S128"
target triple = "x86_64-pc-linux-gnu"

%struct.Curl_cfilter = type { ptr, ptr, ptr, ptr, i32, i8 }
%struct.Curl_easy = type { i32, i64, i64, ptr, %struct.Curl_llist_node, %struct.Curl_llist_node, i32, i32, %struct.Curl_message, %struct.easy_pollset, %struct.Names, ptr, ptr, ptr, %struct.SingleRequest, %struct.UserDefined, ptr, ptr, %struct.Progress, %struct.UrlState, ptr, %struct.PureInfo, %struct.curl_tlssessioninfo }
%struct.Curl_llist_node = type { ptr, ptr, ptr, ptr }
%struct.Curl_message = type { %struct.Curl_llist_node, %struct.CURLMsg }
%struct.CURLMsg = type { i32, ptr, %union.anon.0 }
%union.anon.0 = type { ptr }
%struct.easy_pollset = type { [5 x i32], i32, [5 x i8] }
%struct.Names = type { ptr, i32 }
%struct.SingleRequest = type <{ i64, i64, i64, i64, %struct.curltime, i32, i32, i32, i32, i64, i32, i32, i32, i32, ptr, ptr, %struct.bufq, i64, i64, ptr, ptr, %union.anon.1, ptr, i8, i32, [3 x i8] }>
%struct.curltime = type { i64, i32 }
%struct.bufq = type { ptr, ptr, ptr, ptr, i64, i64, i64, i32 }
%union.anon.1 = type { ptr }
%struct.UserDefined = type <{ ptr, ptr, ptr, ptr, ptr, ptr, i16, [6 x i8], i64, i64, i64, ptr, ptr, i64, i16, i16, [4 x i8], ptr, ptr, ptr, ptr, ptr, ptr, ptr, ptr, ptr, ptr, ptr, ptr, ptr, ptr, ptr, ptr, ptr, ptr, ptr, ptr, ptr, ptr, ptr, i32, i32, i32, i32, i32, [4 x i8], i64, i64, i64, i64, i64, i64, i64, i64, ptr, ptr, %struct.curl_mimepart, ptr, ptr, i64, i8, i8, i8, [5 x i8], %struct.ssl_config_data, %struct.ssl_config_data, ptr, i16, i8, i8, [4 x i8], %struct.ssl_general_config, i32, i32, i32, [4 x i8], ptr, ptr, i8, [7 x i8], i64, i8, i8, i8, i8, i32, ptr, ptr, ptr, i8, i8, [2 x i8], i32, [63 x ptr], [8 x ptr], i32, i32, i32, [4 x i8], ptr, ptr, ptr, ptr, ptr, i8, [3 x i8], i32, i32, i32, i64, %struct.Curl_data_priority, ptr, ptr, i64, ptr, i64, ptr, ptr, ptr, i8, [3 x i8], i32, i8, i8, i64, [6 x i8] }>
%struct.curl_mimepart = type { ptr, ptr, i32, i32, ptr, ptr, ptr, ptr, ptr, ptr, ptr, ptr, ptr, ptr, ptr, i64, %struct.mime_state, ptr, %struct.mime_encoder_state, i64 }
%struct.mime_state = type { i32, ptr, i64 }
%struct.mime_encoder_state = type { i64, i64, i64, [256 x i8] }
%struct.ssl_config_data = type { %struct.ssl_primary_config, i64, ptr, ptr, ptr, ptr, ptr, ptr, ptr, i16 }
%struct.ssl_primary_config = type { ptr, ptr, ptr, ptr, ptr, ptr, ptr, ptr, ptr, ptr, ptr, ptr, i8, i32, i8, i8 }
%struct.ssl_general_config = type { i64, i32 }
%struct.Curl_data_priority = type { ptr, ptr, i32, i8 }
%struct.Progress = type { i64, %struct.pgrs_dir, %struct.pgrs_dir, i64, i64, i32, i32, i64, i64, i64, i64, i64, i64, i64, i64, i64, %struct.curltime, %struct.curltime, %struct.curltime, %struct.curltime, [6 x i64], [6 x %struct.curltime], i32, i8 }
%struct.pgrs_dir = type { i64, i64, i64, %struct.pgrs_measure }
%struct.pgrs_measure = type { %struct.curltime, i64 }
%struct.UrlState = type { %struct.curltime, i64, i64, %struct.dynbuf, ptr, i64, ptr, i32, i32, i32, ptr, i64, i32, i64, i32, ptr, %struct.digestdata, %struct.digestdata, %struct.auth, %struct.auth, %struct.Curl_async, ptr, %struct.curltime, %struct.Curl_tree, %struct.Curl_llist, [15 x %struct.time_node], ptr, ptr, i64, i64, %struct.Curl_data_priority, ptr, ptr, ptr, %struct.urlpieces, ptr, ptr, ptr, ptr, ptr, i64, %struct.dynbuf, %struct.Curl_llist, [2 x %struct.curl_header], ptr, i32, ptr, ptr, %struct.store_netrc, %struct.dynamically_allocated_data, i8, i8, i8, i8, i32 }
%struct.digestdata = type { ptr, ptr, ptr, ptr, ptr, ptr, i32, i8, i8 }
%struct.auth = type { i64, i64, i64, i8 }
%struct.Curl_async = type { ptr, ptr, ptr, ptr, i32, i32, i8 }
%struct.Curl_tree = type { ptr, ptr, ptr, ptr, %struct.curltime, ptr }
%struct.time_node = type { %struct.Curl_llist_node, %struct.curltime, i32 }
%struct.urlpieces = type { ptr, ptr, ptr, ptr, ptr, ptr, ptr, ptr }
%struct.dynbuf = type { ptr, i64, i64, i64 }
%struct.Curl_llist = type { ptr, ptr, ptr, i64 }
%struct.curl_header = type { ptr, ptr, i64, i64, i32, ptr }
%struct.store_netrc = type { %struct.dynbuf, ptr, i8 }
%struct.dynamically_allocated_data = type { ptr, ptr, ptr, ptr, ptr, ptr, ptr, ptr, ptr, ptr, ptr, ptr, ptr }
%struct.PureInfo = type { i32, i32, i32, i64, i64, i64, i64, i64, ptr, ptr, i64, i32, %struct.ip_quadruple, i32, ptr, i32, %struct.curl_certinfo, i32, i8 }
%struct.ip_quadruple = type { [46 x i8], [46 x i8], i32, i32 }
%struct.curl_certinfo = type { i32, ptr }
%struct.curl_tlssessioninfo = type { i32, ptr }
%struct.cf_hc_ctx = type { i32, ptr, %struct.curltime, i32, %struct.cf_hc_baller, %struct.cf_hc_baller, i32, i32 }
%struct.cf_hc_baller = type { ptr, ptr, i32, %struct.curltime, i32, i8 }
%struct.connectdata = type { %struct.Curl_llist_node, ptr, ptr, i64, ptr, i64, ptr, ptr, %struct.hostname, ptr, ptr, %struct.hostname, %struct.proxy_info, %struct.proxy_info, %struct.ip_quadruple, %struct.ip_quadruple, ptr, ptr, ptr, ptr, ptr, %struct.curltime, %struct.curltime, %struct.curltime, [2 x i32], [2 x ptr], [2 x ptr], [2 x ptr], %struct.anon, %struct.easy_pollset, %struct.ssl_primary_config, %struct.ssl_primary_config, %struct.ConnectBits, ptr, ptr, %struct.curltime, i32, i32, %struct.Curl_llist, i32, i32, %struct.ntlmdata, %struct.ntlmdata, %union.anon, ptr, i16, i32, i32, i32, i32, i16, i16, i8, i8, i8, i8, i8, i8, i8 }
%struct.hostname = type { ptr, ptr, ptr, ptr }
%struct.proxy_info = type { %struct.hostname, i32, i8, ptr, ptr }
%struct.anon = type { [2 x %struct.curltime], i32 }
%struct.ConnectBits = type { i64 }
%struct.ntlmdata = type { i32, [8 x i8], i32, ptr }
%union.anon = type { %struct.ftp_conn }
%struct.ftp_conn = type { %struct.pingpong, ptr, ptr, ptr, ptr, ptr, ptr, ptr, i8, i64, ptr, i64, i32, i32, i32, i32, i32, i16, i8, i8, i8, i8, i8 }
%struct.pingpong = type { i64, i8, ptr, i64, i64, %struct.curltime, i64, %struct.dynbuf, %struct.dynbuf, i64, i64, ptr, ptr }

@Curl_cfree = external global ptr, align 8
@Curl_ccalloc = external global ptr, align 8

; Function Attrs: nounwind uwtable
define internal void @cf_hc_baller_reset(ptr noundef %0, ptr noundef %1) #0 {
  %3 = alloca ptr, align 8
  %4 = alloca ptr, align 8
  store ptr %0, ptr %3, align 8, !tbaa !119
  store ptr %1, ptr %4, align 8, !tbaa !9
  %5 = load ptr, ptr %3, align 8, !tbaa !119
  %6 = getelementptr inbounds nuw %struct.cf_hc_baller, ptr %5, i32 0, i32 1
  %7 = load ptr, ptr %6, align 8, !tbaa !121
  %8 = icmp ne ptr %7, null
  br i1 %8, label %9, label %19

9:                                                ; preds = %2
  %10 = load ptr, ptr %3, align 8, !tbaa !119
  %11 = getelementptr inbounds nuw %struct.cf_hc_baller, ptr %10, i32 0, i32 1
  %12 = load ptr, ptr %11, align 8, !tbaa !121
  %13 = load ptr, ptr %4, align 8, !tbaa !9
  call void @Curl_conn_cf_close(ptr noundef %12, ptr noundef %13)
  %14 = load ptr, ptr %3, align 8, !tbaa !119
  %15 = getelementptr inbounds nuw %struct.cf_hc_baller, ptr %14, i32 0, i32 1
  %16 = load ptr, ptr %4, align 8, !tbaa !9
  call void @Curl_conn_cf_discard_chain(ptr noundef %15, ptr noundef %16)
  %17 = load ptr, ptr %3, align 8, !tbaa !119
  %18 = getelementptr inbounds nuw %struct.cf_hc_baller, ptr %17, i32 0, i32 1
  store ptr null, ptr %18, align 8, !tbaa !121
  br label %19

19:                                               ; preds = %9, %2
  %20 = load ptr, ptr %3, align 8, !tbaa !119
  %21 = getelementptr inbounds nuw %struct.cf_hc_baller, ptr %20, i32 0, i32 2
  store i32 0, ptr %21, align 8, !tbaa !123
  %22 = load ptr, ptr %3, align 8, !tbaa !119
  %23 = getelementptr inbounds nuw %struct.cf_hc_baller, ptr %22, i32 0, i32 4
  store i32 -1, ptr %23, align 8, !tbaa !143
  ret void
}

; Function Attrs: nounwind uwtable
define internal void @cf_hc_reset(ptr noundef %0, ptr noundef %1) #0 {
  %3 = alloca ptr, align 8
  %4 = alloca ptr, align 8
  %5 = alloca ptr, align 8
  store ptr %0, ptr %3, align 8, !tbaa !4
  store ptr %1, ptr %4, align 8, !tbaa !9
  call void @llvm.lifetime.start.p0(i64 8, ptr %5) #5
  %6 = load ptr, ptr %3, align 8, !tbaa !4
  %7 = getelementptr inbounds nuw %struct.Curl_cfilter, ptr %6, i32 0, i32 2
  %8 = load ptr, ptr %7, align 8, !tbaa !11
  store ptr %8, ptr %5, align 8, !tbaa !16
  %9 = load ptr, ptr %5, align 8, !tbaa !16
  %10 = icmp ne ptr %9, null
  br i1 %10, label %11, label %35

11:                                               ; preds = %2
  %12 = load ptr, ptr %5, align 8, !tbaa !16
  %13 = getelementptr inbounds nuw %struct.cf_hc_ctx, ptr %12, i32 0, i32 4
  %14 = load ptr, ptr %4, align 8, !tbaa !9
  call void @cf_hc_baller_reset(ptr noundef %13, ptr noundef %14)
  %15 = load ptr, ptr %5, align 8, !tbaa !16
  %16 = getelementptr inbounds nuw %struct.cf_hc_ctx, ptr %15, i32 0, i32 5
  %17 = load ptr, ptr %4, align 8, !tbaa !9
  call void @cf_hc_baller_reset(ptr noundef %16, ptr noundef %17)
  %18 = load ptr, ptr %5, align 8, !tbaa !16
  %19 = getelementptr inbounds nuw %struct.cf_hc_ctx, ptr %18, i32 0, i32 0
  store i32 0, ptr %19, align 8, !tbaa !98
  %20 = load ptr, ptr %5, align 8, !tbaa !16
  %21 = getelementptr inbounds nuw %struct.cf_hc_ctx, ptr %20, i32 0, i32 3
  store i32 0, ptr %21, align 8, !tbaa !116
  %22 = load ptr, ptr %4, align 8, !tbaa !9
  %23 = getelementptr inbounds nuw %struct.Curl_easy, ptr %22, i32 0, i32 15
  %24 = getelementptr inbounds nuw %struct.UserDefined, ptr %23, i32 0, i32 42
  %25 = load i32, ptr %24, align 8, !tbaa !141
  %26 = load ptr, ptr %5, align 8, !tbaa !16
  %27 = getelementptr inbounds nuw %struct.cf_hc_ctx, ptr %26, i32 0, i32 7
  store i32 %25, ptr %27, align 4, !tbaa !142
  %28 = load ptr, ptr %4, align 8, !tbaa !9
  %29 = getelementptr inbounds nuw %struct.Curl_easy, ptr %28, i32 0, i32 15
  %30 = getelementptr inbounds nuw %struct.UserDefined, ptr %29, i32 0, i32 42
  %31 = load i32, ptr %30, align 8, !tbaa !141
  %32 = udiv i32 %31, 2
  %33 = load ptr, ptr %5, align 8, !tbaa !16
  %34 = getelementptr inbounds nuw %struct.cf_hc_ctx, ptr %33, i32 0, i32 6
  store i32 %32, ptr %34, align 8, !tbaa !101
  br label %35

35:                                               ; preds = %11, %2
  call void @llvm.lifetime.end.p0(i64 8, ptr %5) #5
  ret void
}

; Function Attrs: nounwind uwtable
define internal i32 @cf_hc_create(ptr noundef %0, ptr noundef %1, ptr noundef %2, i1 noundef zeroext %3, i1 noundef zeroext %4) #0 {
  %6 = alloca ptr, align 8
  %7 = alloca ptr, align 8
  %8 = alloca ptr, align 8
  %9 = alloca i8, align 1
  %10 = alloca i8, align 1
  %11 = alloca ptr, align 8
  %12 = alloca ptr, align 8
  %13 = alloca i32, align 4
  store ptr %0, ptr %6, align 8, !tbaa !152
  store ptr %1, ptr %7, align 8, !tbaa !9
  store ptr %2, ptr %8, align 8, !tbaa !139
  %14 = zext i1 %3 to i8
  store i8 %14, ptr %9, align 1, !tbaa !91
  %15 = zext i1 %4 to i8
  store i8 %15, ptr %10, align 1, !tbaa !91
  call void @llvm.lifetime.start.p0(i64 8, ptr %11) #5
  store ptr null, ptr %11, align 8, !tbaa !4
  call void @llvm.lifetime.start.p0(i64 8, ptr %12) #5
  call void @llvm.lifetime.start.p0(i64 4, ptr %13) #5
  store i32 0, ptr %13, align 4, !tbaa !95
  %16 = load ptr, ptr @Curl_ccalloc, align 8, !tbaa !90
  %17 = call ptr %16(i64 noundef 1, i64 noundef 144)
  store ptr %17, ptr %12, align 8, !tbaa !16
  %18 = load ptr, ptr %12, align 8, !tbaa !16
  %19 = icmp ne ptr %18, null
  br i1 %19, label %21, label %20

20:                                               ; preds = %5
  store i32 27, ptr %13, align 4, !tbaa !95
  br label %55

21:                                               ; preds = %5
  %22 = load ptr, ptr %8, align 8, !tbaa !139
  %23 = load ptr, ptr %12, align 8, !tbaa !16
  %24 = getelementptr inbounds nuw %struct.cf_hc_ctx, ptr %23, i32 0, i32 1
  store ptr %22, ptr %24, align 8, !tbaa !146
  %25 = load i8, ptr %9, align 1, !tbaa !91, !range !112, !noundef !113
  %26 = trunc i8 %25 to i1
  %27 = zext i1 %26 to i32
  %28 = load ptr, ptr %12, align 8, !tbaa !16
  %29 = getelementptr inbounds nuw %struct.cf_hc_ctx, ptr %28, i32 0, i32 4
  %30 = getelementptr inbounds nuw %struct.cf_hc_baller, ptr %29, i32 0, i32 5
  %31 = trunc i32 %27 to i8
  %32 = load i8, ptr %30, align 4
  %33 = and i8 %31, 1
  %34 = and i8 %32, -2
  %35 = or i8 %34, %33
  store i8 %35, ptr %30, align 4
  %36 = load i8, ptr %10, align 1, !tbaa !91, !range !112, !noundef !113
  %37 = trunc i8 %36 to i1
  %38 = zext i1 %37 to i32
  %39 = load ptr, ptr %12, align 8, !tbaa !16
  %40 = getelementptr inbounds nuw %struct.cf_hc_ctx, ptr %39, i32 0, i32 5
  %41 = getelementptr inbounds nuw %struct.cf_hc_baller, ptr %40, i32 0, i32 5
  %42 = trunc i32 %38 to i8
  %43 = load i8, ptr %41, align 4
  %44 = and i8 %42, 1
  %45 = and i8 %43, -2
  %46 = or i8 %45, %44
  store i8 %46, ptr %41, align 4
  %47 = load ptr, ptr %12, align 8, !tbaa !16
  %48 = call i32 @Curl_cf_create(ptr noundef %11, ptr noundef @Curl_cft_http_connect, ptr noundef %47)
  store i32 %48, ptr %13, align 4, !tbaa !95
  %49 = load i32, ptr %13, align 4, !tbaa !95
  %50 = icmp ne i32 %49, 0
  br i1 %50, label %51, label %52

51:                                               ; preds = %21
  br label %55

52:                                               ; preds = %21
  store ptr null, ptr %12, align 8, !tbaa !16
  %53 = load ptr, ptr %11, align 8, !tbaa !4
  %54 = load ptr, ptr %7, align 8, !tbaa !9
  call void @cf_hc_reset(ptr noundef %53, ptr noundef %54)
  br label %55

55:                                               ; preds = %52, %51, %20
  %56 = load i32, ptr %13, align 4, !tbaa !95
  %57 = icmp ne i32 %56, 0
  br i1 %57, label %58, label %59

58:                                               ; preds = %55
  br label %61

59:                                               ; preds = %55
  %60 = load ptr, ptr %11, align 8, !tbaa !4
  br label %61

61:                                               ; preds = %59, %58
  %62 = phi ptr [ null, %58 ], [ %60, %59 ]
  %63 = load ptr, ptr %6, align 8, !tbaa !152
  store ptr %62, ptr %63, align 8, !tbaa !4
  %64 = load ptr, ptr @Curl_cfree, align 8, !tbaa !90
  %65 = load ptr, ptr %12, align 8, !tbaa !16
  call void %64(ptr noundef %65)
  %66 = load i32, ptr %13, align 4, !tbaa !95
  call void @llvm.lifetime.end.p0(i64 4, ptr %13) #5
  call void @llvm.lifetime.end.p0(i64 8, ptr %12) #5
  call void @llvm.lifetime.end.p0(i64 8, ptr %11) #5
  ret i32 %66
}

; Function Attrs: nounwind uwtable
define internal i32 @cf_http_connect_add(ptr noundef %0, ptr noundef %1, i32 noundef %2, ptr noundef %3, i1 noundef zeroext %4, i1 noundef zeroext %5) #0 {
  %7 = alloca ptr, align 8
  %8 = alloca ptr, align 8
  %9 = alloca i32, align 4
  %10 = alloca ptr, align 8
  %11 = alloca i8, align 1
  %12 = alloca i8, align 1
  %13 = alloca ptr, align 8
  %14 = alloca i32, align 4
  store ptr %0, ptr %7, align 8, !tbaa !9
  store ptr %1, ptr %8, align 8, !tbaa !138
  store i32 %2, ptr %9, align 4, !tbaa !95
  store ptr %3, ptr %10, align 8, !tbaa !139
  %15 = zext i1 %4 to i8
  store i8 %15, ptr %11, align 1, !tbaa !91
  %16 = zext i1 %5 to i8
  store i8 %16, ptr %12, align 1, !tbaa !91
  call void @llvm.lifetime.start.p0(i64 8, ptr %13) #5
  call void @llvm.lifetime.start.p0(i64 4, ptr %14) #5
  store i32 0, ptr %14, align 4, !tbaa !95
  br label %17

17:                                               ; preds = %6
  br label %18

18:                                               ; preds = %17
  br label %19

19:                                               ; preds = %18
  %20 = load ptr, ptr %7, align 8, !tbaa !9
  %21 = load ptr, ptr %10, align 8, !tbaa !139
  %22 = load i8, ptr %11, align 1, !tbaa !91, !range !112, !noundef !113
  %23 = trunc i8 %22 to i1
  %24 = load i8, ptr %12, align 1, !tbaa !91, !range !112, !noundef !113
  %25 = trunc i8 %24 to i1
  %26 = call i32 @cf_hc_create(ptr noundef %13, ptr noundef %20, ptr noundef %21, i1 noundef zeroext %23, i1 noundef zeroext %25)
  store i32 %26, ptr %14, align 4, !tbaa !95
  %27 = load i32, ptr %14, align 4, !tbaa !95
  %28 = icmp ne i32 %27, 0
  br i1 %28, label %29, label %30

29:                                               ; preds = %19
  br label %35

30:                                               ; preds = %19
  %31 = load ptr, ptr %7, align 8, !tbaa !9
  %32 = load ptr, ptr %8, align 8, !tbaa !138
  %33 = load i32, ptr %9, align 4, !tbaa !95
  %34 = load ptr, ptr %13, align 8, !tbaa !4
  call void @Curl_conn_cf_add(ptr noundef %31, ptr noundef %32, i32 noundef %33, ptr noundef %34)
  br label %35

35:                                               ; preds = %30, %29
  %36 = load i32, ptr %14, align 4, !tbaa !95
  call void @llvm.lifetime.end.p0(i64 4, ptr %14) #5
  call void @llvm.lifetime.end.p0(i64 8, ptr %13) #5
  ret i32 %36
}

; Function Attrs: nounwind uwtable
define dso_local i32 @Curl_cf_https_setup(ptr noundef %0, ptr noundef %1, i32 noundef %2, ptr noundef %3) #0 {
  %5 = alloca ptr, align 8
  %6 = alloca ptr, align 8
  %7 = alloca i32, align 4
  %8 = alloca ptr, align 8
  %9 = alloca i8, align 1
  %10 = alloca i8, align 1
  %11 = alloca i32, align 4
  store ptr %0, ptr %5, align 8, !tbaa !9
  store ptr %1, ptr %6, align 8, !tbaa !138
  store i32 %2, ptr %7, align 4, !tbaa !95
  store ptr %3, ptr %8, align 8, !tbaa !139
  call void @llvm.lifetime.start.p0(i64 1, ptr %9) #5
  store i8 0, ptr %9, align 1, !tbaa !91
  call void @llvm.lifetime.start.p0(i64 1, ptr %10) #5
  store i8 1, ptr %10, align 1, !tbaa !91
  call void @llvm.lifetime.start.p0(i64 4, ptr %11) #5
  store i32 0, ptr %11, align 4, !tbaa !95
  %12 = load ptr, ptr %6, align 8, !tbaa !138
  %13 = getelementptr inbounds nuw %struct.connectdata, ptr %12, i32 0, i32 32
  %14 = load i64, ptr %13, align 8
  %15 = lshr i64 %14, 24
  %16 = and i64 %15, 1
  %17 = trunc i64 %16 to i32
  %18 = icmp ne i32 %17, 0
  br i1 %18, label %20, label %19

19:                                               ; preds = %4
  br label %59

20:                                               ; preds = %4
  %21 = load ptr, ptr %5, align 8, !tbaa !9
  %22 = getelementptr inbounds nuw %struct.Curl_easy, ptr %21, i32 0, i32 19
  %23 = getelementptr inbounds nuw %struct.UrlState, ptr %22, i32 0, i32 50
  %24 = load i8, ptr %23, align 8, !tbaa !140
  %25 = zext i8 %24 to i32
  %26 = icmp eq i32 %25, 31
  br i1 %26, label %27, label %35

27:                                               ; preds = %20
  %28 = load ptr, ptr %5, align 8, !tbaa !9
  %29 = load ptr, ptr %6, align 8, !tbaa !138
  %30 = call i32 @Curl_conn_may_http3(ptr noundef %28, ptr noundef %29)
  store i32 %30, ptr %11, align 4, !tbaa !95
  %31 = load i32, ptr %11, align 4, !tbaa !95
  %32 = icmp ne i32 %31, 0
  br i1 %32, label %33, label %34

33:                                               ; preds = %27
  br label %59

34:                                               ; preds = %27
  store i8 1, ptr %9, align 1, !tbaa !91
  store i8 0, ptr %10, align 1, !tbaa !91
  br label %49

35:                                               ; preds = %20
  %36 = load ptr, ptr %5, align 8, !tbaa !9
  %37 = getelementptr inbounds nuw %struct.Curl_easy, ptr %36, i32 0, i32 19
  %38 = getelementptr inbounds nuw %struct.UrlState, ptr %37, i32 0, i32 50
  %39 = load i8, ptr %38, align 8, !tbaa !140
  %40 = zext i8 %39 to i32
  %41 = icmp sge i32 %40, 30
  br i1 %41, label %42, label %48

42:                                               ; preds = %35
  %43 = load ptr, ptr %5, align 8, !tbaa !9
  %44 = load ptr, ptr %6, align 8, !tbaa !138
  %45 = call i32 @Curl_conn_may_http3(ptr noundef %43, ptr noundef %44)
  %46 = icmp eq i32 %45, 0
  %47 = zext i1 %46 to i8
  store i8 %47, ptr %9, align 1, !tbaa !91
  store i8 1, ptr %10, align 1, !tbaa !91
  br label %48

48:                                               ; preds = %42, %35
  br label %49

49:                                               ; preds = %48, %34
  %50 = load ptr, ptr %5, align 8, !tbaa !9
  %51 = load ptr, ptr %6, align 8, !tbaa !138
  %52 = load i32, ptr %7, align 4, !tbaa !95
  %53 = load ptr, ptr %8, align 8, !tbaa !139
  %54 = load i8, ptr %9, align 1, !tbaa !91, !range !112, !noundef !113
  %55 = trunc i8 %54 to i1
  %56 = load i8, ptr %10, align 1, !tbaa !91, !range !112, !noundef !113
  %57 = trunc i8 %56 to i1
  %58 = call i32 @cf_http_connect_add(ptr noundef %50, ptr noundef %51, i32 noundef %52, ptr noundef %53, i1 noundef zeroext %55, i1 noundef zeroext %57)
  store i32 %58, ptr %11, align 4, !tbaa !95
  br label %59

59:                                               ; preds = %49, %33, %19
  %60 = load i32, ptr %11, align 4, !tbaa !95
  call void @llvm.lifetime.end.p0(i64 4, ptr %11) #5
  call void @llvm.lifetime.end.p0(i64 1, ptr %10) #5
  call void @llvm.lifetime.end.p0(i64 1, ptr %9) #5
  ret i32 %60
}