; Function Attrs: nounwind uwtable
define dso_local i32 @Curl_cf_https_setup(ptr noundef %0, ptr noundef %1, i32 noundef %2, ptr noundef %3) local_unnamed_addr #0 {
  %5 = alloca ptr, align 8
  %6 = getelementptr inbounds nuw i8, ptr %1, i64 920
  %7 = load i64, ptr %6, align 8
  %8 = and i64 %7, 16777216
  %.not = icmp eq i64 %8, 0
  br i1 %.not, label %cf_http_connect_add.exit, label %9

9:                                                ; preds = %4
  %10 = getelementptr inbounds nuw i8, ptr %0, i64 4872
  %11 = load i8, ptr %10, align 8, !tbaa !128
  %12 = icmp ne i8 %11, 31
  br i1 %12, label %15, label %13

13:                                               ; preds = %9
  %14 = tail call i32 @Curl_conn_may_http3(ptr noundef nonnull %0, ptr noundef nonnull %1) #4
  %.not18 = icmp eq i32 %14, 0
  br i1 %.not18, label %21, label %cf_http_connect_add.exit

15:                                               ; preds = %9
  %16 = icmp ugt i8 %11, 29
  br i1 %16, label %17, label %21

17:                                               ; preds = %15
  %18 = tail call i32 @Curl_conn_may_http3(ptr noundef nonnull %0, ptr noundef nonnull %1) #4
  %19 = icmp eq i32 %18, 0
  %20 = zext i1 %19 to i8
  br label %21

21:                                               ; preds = %13, %15, %17
  %.015 = phi i8 [ %20, %17 ], [ 0, %15 ], [ 1, %13 ]
  call void @llvm.lifetime.start.p0(i64 8, ptr nonnull %5) #4
  store ptr null, ptr %5, align 8, !tbaa !129
  %22 = load ptr, ptr @Curl_ccalloc, align 8, !tbaa !96
  %23 = tail call ptr %22(i64 noundef 1, i64 noundef 144) #4
  %.not.i.i = icmp eq ptr %23, null
  br i1 %.not.i.i, label %cf_hc_create.exit.i, label %24

24:                                               ; preds = %21
  %25 = getelementptr inbounds nuw i8, ptr %23, i64 8
  store ptr %3, ptr %25, align 8, !tbaa !103
  %26 = getelementptr inbounds nuw i8, ptr %23, i64 84
  %27 = load i8, ptr %26, align 4
  %28 = and i8 %27, -2
  %29 = or disjoint i8 %28, %.015
  store i8 %29, ptr %26, align 4
  %30 = getelementptr inbounds nuw i8, ptr %23, i64 132
  %31 = zext i1 %12 to i8
  %32 = load i8, ptr %30, align 4
  %33 = and i8 %32, -2
  %34 = or disjoint i8 %33, %31
  store i8 %34, ptr %30, align 4
  %35 = call i32 @Curl_cf_create(ptr noundef nonnull %5, ptr noundef nonnull @Curl_cft_http_connect, ptr noundef nonnull %23) #4
  %.not17.i.i = icmp eq i32 %35, 0
  br i1 %.not17.i.i, label %36, label %cf_hc_create.exit.i

36:                                               ; preds = %24
  %37 = load ptr, ptr %5, align 8, !tbaa !129
  %38 = getelementptr i8, ptr %37, i64 16
  %.val.i.i = load ptr, ptr %38, align 8, !tbaa !4
  %.not.i.i.i = icmp eq ptr %.val.i.i, null
  br i1 %.not.i.i.i, label %57, label %39

39:                                               ; preds = %36
  %40 = getelementptr inbounds nuw i8, ptr %.val.i.i, i64 48
  %41 = load ptr, ptr %40, align 8, !tbaa !86
  %.not.i.i.i.i = icmp eq ptr %41, null
  br i1 %.not.i.i.i.i, label %cf_hc_baller_reset.exit.i.i.i, label %42

42:                                               ; preds = %39
  call void @Curl_conn_cf_close(ptr noundef nonnull %41, ptr noundef nonnull %0) #4
  call void @Curl_conn_cf_discard_chain(ptr noundef nonnull %40, ptr noundef nonnull %0) #4
  store ptr null, ptr %40, align 8, !tbaa !86
  br label %cf_hc_baller_reset.exit.i.i.i

cf_hc_baller_reset.exit.i.i.i:                    ; preds = %42, %39
  %43 = getelementptr inbounds nuw i8, ptr %.val.i.i, i64 56
  store i32 0, ptr %43, align 8, !tbaa !88
  %44 = getelementptr inbounds nuw i8, ptr %.val.i.i, i64 80
  store i32 -1, ptr %44, align 8, !tbaa !89
  %45 = getelementptr inbounds nuw i8, ptr %.val.i.i, i64 96
  %46 = load ptr, ptr %45, align 8, !tbaa !86
  %.not.i12.i.i.i = icmp eq ptr %46, null
  br i1 %.not.i12.i.i.i, label %cf_hc_baller_reset.exit13.i.i.i, label %47

47:                                               ; preds = %cf_hc_baller_reset.exit.i.i.i
  call void @Curl_conn_cf_close(ptr noundef nonnull %46, ptr noundef nonnull %0) #4
  call void @Curl_conn_cf_discard_chain(ptr noundef nonnull %45, ptr noundef nonnull %0) #4
  store ptr null, ptr %45, align 8, !tbaa !86
  br label %cf_hc_baller_reset.exit13.i.i.i

cf_hc_baller_reset.exit13.i.i.i:                  ; preds = %47, %cf_hc_baller_reset.exit.i.i.i
  %48 = getelementptr inbounds nuw i8, ptr %.val.i.i, i64 104
  store i32 0, ptr %48, align 8, !tbaa !88
  %49 = getelementptr inbounds nuw i8, ptr %.val.i.i, i64 128
  store i32 -1, ptr %49, align 8, !tbaa !89
  store i32 0, ptr %.val.i.i, align 8, !tbaa !90
  %50 = getelementptr inbounds nuw i8, ptr %.val.i.i, i64 32
  store i32 0, ptr %50, align 8, !tbaa !92
  %51 = getelementptr inbounds nuw i8, ptr %0, i64 760
  %52 = load i32, ptr %51, align 8, !tbaa !93
  %53 = getelementptr inbounds nuw i8, ptr %.val.i.i, i64 140
  store i32 %52, ptr %53, align 4, !tbaa !94
  %54 = lshr i32 %52, 1
  %55 = getelementptr inbounds nuw i8, ptr %.val.i.i, i64 136
  store i32 %54, ptr %55, align 8, !tbaa !95
  %.pre.i.i = load ptr, ptr %5, align 8
  br label %57

cf_hc_create.exit.i:                              ; preds = %24, %21
  %.025.i.i = phi i32 [ %35, %24 ], [ 27, %21 ]
  %56 = load ptr, ptr @Curl_cfree, align 8, !tbaa !96
  call void %56(ptr noundef %23) #4
  call void @llvm.lifetime.end.p0(i64 8, ptr nonnull %5) #4
  br label %cf_http_connect_add.exit

57:                                               ; preds = %cf_hc_baller_reset.exit13.i.i.i, %36
  %.ph.i = phi ptr [ %.pre.i.i, %cf_hc_baller_reset.exit13.i.i.i ], [ %37, %36 ]
  %58 = load ptr, ptr @Curl_cfree, align 8, !tbaa !96
  call void %58(ptr noundef null) #4
  call void @llvm.lifetime.end.p0(i64 8, ptr nonnull %5) #4
  call void @Curl_conn_cf_add(ptr noundef nonnull %0, ptr noundef nonnull %1, i32 noundef %2, ptr noundef %.ph.i) #4
  br label %cf_http_connect_add.exit

cf_http_connect_add.exit:                         ; preds = %57, %cf_hc_create.exit.i, %13, %4
  %.0 = phi i32 [ %14, %13 ], [ 0, %4 ], [ %.025.i.i, %cf_hc_create.exit.i ], [ 0, %57 ]
  ret i32 %.0
}